target datalayout = "e-m:e-p270:32:32-p271:32:32-p272:64:64-i64:64-i128:128-f80:128-n8:16:32:64-S128"
target triple = "x86_64-pc-linux-gnu"

%struct.swapInfo = type { ptr, ptr, i32, i32, i32 }
%struct.varInfo = type { i32, i32 }

; Function Attrs: nounwind uwtable
define i32 @nextSwap(ptr noundef %0) #0 {
  %2 = alloca i32, align 4
  %3 = alloca ptr, align 8
  %4 = alloca i32, align 4
  %5 = alloca i32, align 4
  %6 = alloca i32, align 4
  %7 = alloca i32, align 4
  store ptr %0, ptr %3, align 8, !tbaa !3
  call void @llvm.lifetime.start.p0(i64 4, ptr %4) #7
  call void @llvm.lifetime.start.p0(i64 4, ptr %5) #7
  call void @llvm.lifetime.start.p0(i64 4, ptr %6) #7
  %8 = load ptr, ptr %3, align 8, !tbaa !3
  %9 = getelementptr inbounds nuw %struct.swapInfo, ptr %8, i32 0, i32 2
  %10 = load i32, ptr %9, align 8, !tbaa !7
  store i32 %10, ptr %4, align 4, !tbaa !11
  br label %11

11:                                               ; preds = %191, %1
  %12 = load i32, ptr %4, align 4, !tbaa !11
  %13 = icmp sgt i32 %12, 1
  br i1 %13, label %14, label %194

14:                                               ; preds = %11
  %15 = load i32, ptr %4, align 4, !tbaa !11
  %16 = load ptr, ptr %3, align 8, !tbaa !3
  %17 = getelementptr inbounds nuw %struct.swapInfo, ptr %16, i32 0, i32 1
  %18 = load ptr, ptr %17, align 8, !tbaa !12
  %19 = load ptr, ptr %3, align 8, !tbaa !3
  %20 = getelementptr inbounds nuw %struct.swapInfo, ptr %19, i32 0, i32 0
  %21 = load ptr, ptr %20, align 8, !tbaa !13
  %22 = load i32, ptr %4, align 4, !tbaa !11
  %23 = sext i32 %22 to i64
  %24 = getelementptr inbounds %struct.varInfo, ptr %21, i64 %23
  %25 = getelementptr inbounds nuw %struct.varInfo, ptr %24, i32 0, i32 1
  %26 = load i32, ptr %25, align 4, !tbaa !14
  %27 = load ptr, ptr %3, align 8, !tbaa !3
  %28 = getelementptr inbounds nuw %struct.swapInfo, ptr %27, i32 0, i32 0
  %29 = load ptr, ptr %28, align 8, !tbaa !13
  %30 = load i32, ptr %4, align 4, !tbaa !11
  %31 = sext i32 %30 to i64
  %32 = getelementptr inbounds %struct.varInfo, ptr %29, i64 %31
  %33 = getelementptr inbounds nuw %struct.varInfo, ptr %32, i32 0, i32 0
  %34 = load i32, ptr %33, align 4, !tbaa !16
  %35 = add nsw i32 %26, %34
  %36 = sext i32 %35 to i64
  %37 = getelementptr inbounds i32, ptr %18, i64 %36
  %38 = load i32, ptr %37, align 4, !tbaa !11
  %39 = icmp sgt i32 %15, %38
  br i1 %39, label %40, label %190

40:                                               ; preds = %14
  %41 = load ptr, ptr %3, align 8, !tbaa !3
  %42 = getelementptr inbounds nuw %struct.swapInfo, ptr %41, i32 0, i32 0
  %43 = load ptr, ptr %42, align 8, !tbaa !13
  %44 = load i32, ptr %4, align 4, !tbaa !11
  %45 = sext i32 %44 to i64
  %46 = getelementptr inbounds %struct.varInfo, ptr %43, i64 %45
  %47 = getelementptr inbounds nuw %struct.varInfo, ptr %46, i32 0, i32 1
  %48 = load i32, ptr %47, align 4, !tbaa !14
  %49 = load ptr, ptr %3, align 8, !tbaa !3
  %50 = getelementptr inbounds nuw %struct.swapInfo, ptr %49, i32 0, i32 0
  %51 = load ptr, ptr %50, align 8, !tbaa !13
  %52 = load i32, ptr %4, align 4, !tbaa !11
  %53 = sext i32 %52 to i64
  %54 = getelementptr inbounds %struct.varInfo, ptr %51, i64 %53
  %55 = getelementptr inbounds nuw %struct.varInfo, ptr %54, i32 0, i32 0
  %56 = load i32, ptr %55, align 4, !tbaa !16
  %57 = add nsw i32 %48, %56
  %58 = load ptr, ptr %3, align 8, !tbaa !3
  %59 = getelementptr inbounds nuw %struct.swapInfo, ptr %58, i32 0, i32 0
  %60 = load ptr, ptr %59, align 8, !tbaa !13
  %61 = load i32, ptr %4, align 4, !tbaa !11
  %62 = sext i32 %61 to i64
  %63 = getelementptr inbounds %struct.varInfo, ptr %60, i64 %62
  %64 = getelementptr inbounds nuw %struct.varInfo, ptr %63, i32 0, i32 1
  store i32 %57, ptr %64, align 4, !tbaa !14
  %65 = load ptr, ptr %3, align 8, !tbaa !3
  %66 = getelementptr inbounds nuw %struct.swapInfo, ptr %65, i32 0, i32 1
  %67 = load ptr, ptr %66, align 8, !tbaa !12
  %68 = load ptr, ptr %3, align 8, !tbaa !3
  %69 = getelementptr inbounds nuw %struct.swapInfo, ptr %68, i32 0, i32 0
  %70 = load ptr, ptr %69, align 8, !tbaa !13
  %71 = load i32, ptr %4, align 4, !tbaa !11
  %72 = sext i32 %71 to i64
  %73 = getelementptr inbounds %struct.varInfo, ptr %70, i64 %72
  %74 = getelementptr inbounds nuw %struct.varInfo, ptr %73, i32 0, i32 1
  %75 = load i32, ptr %74, align 4, !tbaa !14
  %76 = sext i32 %75 to i64
  %77 = getelementptr inbounds i32, ptr %67, i64 %76
  %78 = load i32, ptr %77, align 4, !tbaa !11
  store i32 %78, ptr %6, align 4, !tbaa !11
  %79 = load i32, ptr %4, align 4, !tbaa !11
  %80 = load ptr, ptr %3, align 8, !tbaa !3
  %81 = getelementptr inbounds nuw %struct.swapInfo, ptr %80, i32 0, i32 1
  %82 = load ptr, ptr %81, align 8, !tbaa !12
  %83 = load ptr, ptr %3, align 8, !tbaa !3
  %84 = getelementptr inbounds nuw %struct.swapInfo, ptr %83, i32 0, i32 0
  %85 = load ptr, ptr %84, align 8, !tbaa !13
  %86 = load i32, ptr %4, align 4, !tbaa !11
  %87 = sext i32 %86 to i64
  %88 = getelementptr inbounds %struct.varInfo, ptr %85, i64 %87
  %89 = getelementptr inbounds nuw %struct.varInfo, ptr %88, i32 0, i32 1
  %90 = load i32, ptr %89, align 4, !tbaa !14
  %91 = sext i32 %90 to i64
  %92 = getelementptr inbounds i32, ptr %82, i64 %91
  store i32 %79, ptr %92, align 4, !tbaa !11
  %93 = load i32, ptr %6, align 4, !tbaa !11
  %94 = load ptr, ptr %3, align 8, !tbaa !3
  %95 = getelementptr inbounds nuw %struct.swapInfo, ptr %94, i32 0, i32 1
  %96 = load ptr, ptr %95, align 8, !tbaa !12
  %97 = load ptr, ptr %3, align 8, !tbaa !3
  %98 = getelementptr inbounds nuw %struct.swapInfo, ptr %97, i32 0, i32 0
  %99 = load ptr, ptr %98, align 8, !tbaa !13
  %100 = load i32, ptr %4, align 4, !tbaa !11
  %101 = sext i32 %100 to i64
  %102 = getelementptr inbounds %struct.varInfo, ptr %99, i64 %101
  %103 = getelementptr inbounds nuw %struct.varInfo, ptr %102, i32 0, i32 1
  %104 = load i32, ptr %103, align 4, !tbaa !14
  %105 = load ptr, ptr %3, align 8, !tbaa !3
  %106 = getelementptr inbounds nuw %struct.swapInfo, ptr %105, i32 0, i32 0
  %107 = load ptr, ptr %106, align 8, !tbaa !13
  %108 = load i32, ptr %4, align 4, !tbaa !11
  %109 = sext i32 %108 to i64
  %110 = getelementptr inbounds %struct.varInfo, ptr %107, i64 %109
  %111 = getelementptr inbounds nuw %struct.varInfo, ptr %110, i32 0, i32 0
  %112 = load i32, ptr %111, align 4, !tbaa !16
  %113 = sub nsw i32 %104, %112
  %114 = sext i32 %113 to i64
  %115 = getelementptr inbounds i32, ptr %96, i64 %114
  store i32 %93, ptr %115, align 4, !tbaa !11
  %116 = load ptr, ptr %3, align 8, !tbaa !3
  %117 = getelementptr inbounds nuw %struct.swapInfo, ptr %116, i32 0, i32 0
  %118 = load ptr, ptr %117, align 8, !tbaa !13
  %119 = load i32, ptr %4, align 4, !tbaa !11
  %120 = sext i32 %119 to i64
  %121 = getelementptr inbounds %struct.varInfo, ptr %118, i64 %120
  %122 = getelementptr inbounds nuw %struct.varInfo, ptr %121, i32 0, i32 1
  %123 = load i32, ptr %122, align 4, !tbaa !14
  %124 = load ptr, ptr %3, align 8, !tbaa !3
  %125 = getelementptr inbounds nuw %struct.swapInfo, ptr %124, i32 0, i32 0
  %126 = load ptr, ptr %125, align 8, !tbaa !13
  %127 = load i32, ptr %4, align 4, !tbaa !11
  %128 = sext i32 %127 to i64
  %129 = getelementptr inbounds %struct.varInfo, ptr %126, i64 %128
  %130 = getelementptr inbounds nuw %struct.varInfo, ptr %129, i32 0, i32 0
  %131 = load i32, ptr %130, align 4, !tbaa !16
  %132 = sub nsw i32 %123, %131
  %133 = load ptr, ptr %3, align 8, !tbaa !3
  %134 = getelementptr inbounds nuw %struct.swapInfo, ptr %133, i32 0, i32 0
  %135 = load ptr, ptr %134, align 8, !tbaa !13
  %136 = load i32, ptr %6, align 4, !tbaa !11
  %137 = sext i32 %136 to i64
  %138 = getelementptr inbounds %struct.varInfo, ptr %135, i64 %137
  %139 = getelementptr inbounds nuw %struct.varInfo, ptr %138, i32 0, i32 1
  store i32 %132, ptr %139, align 4, !tbaa !14
  %140 = load ptr, ptr %3, align 8, !tbaa !3
  %141 = getelementptr inbounds nuw %struct.swapInfo, ptr %140, i32 0, i32 2
  %142 = load i32, ptr %141, align 8, !tbaa !7
  store i32 %142, ptr %5, align 4, !tbaa !11
  br label %143

143:                                              ; preds = %164, %40
  %144 = load i32, ptr %5, align 4, !tbaa !11
  %145 = load i32, ptr %4, align 4, !tbaa !11
  %146 = icmp sgt i32 %144, %145
  br i1 %146, label %147, label %167

147:                                              ; preds = %143
  %148 = load ptr, ptr %3, align 8, !tbaa !3
  %149 = getelementptr inbounds nuw %struct.swapInfo, ptr %148, i32 0, i32 0
  %150 = load ptr, ptr %149, align 8, !tbaa !13
  %151 = load i32, ptr %5, align 4, !tbaa !11
  %152 = sext i32 %151 to i64
  %153 = getelementptr inbounds %struct.varInfo, ptr %150, i64 %152
  %154 = getelementptr inbounds nuw %struct.varInfo, ptr %153, i32 0, i32 0
  %155 = load i32, ptr %154, align 4, !tbaa !16
  %156 = mul nsw i32 %155, -1
  %157 = load ptr, ptr %3, align 8, !tbaa !3
  %158 = getelementptr inbounds nuw %struct.swapInfo, ptr %157, i32 0, i32 0
  %159 = load ptr, ptr %158, align 8, !tbaa !13
  %160 = load i32, ptr %5, align 4, !tbaa !11
  %161 = sext i32 %160 to i64
  %162 = getelementptr inbounds %struct.varInfo, ptr %159, i64 %161
  %163 = getelementptr inbounds nuw %struct.varInfo, ptr %162, i32 0, i32 0
  store i32 %156, ptr %163, align 4, !tbaa !16
  br label %164

164:                                              ; preds = %147
  %165 = load i32, ptr %5, align 4, !tbaa !11
  %166 = add nsw i32 %165, -1
  store i32 %166, ptr %5, align 4, !tbaa !11
  br label %143, !llvm.loop !17

167:                                              ; preds = %143
  %168 = load ptr, ptr %3, align 8, !tbaa !3
  %169 = getelementptr inbounds nuw %struct.swapInfo, ptr %168, i32 0, i32 0
  %170 = load ptr, ptr %169, align 8, !tbaa !13
  %171 = load i32, ptr %6, align 4, !tbaa !11
  %172 = sext i32 %171 to i64
  %173 = getelementptr inbounds %struct.varInfo, ptr %170, i64 %172
  %174 = getelementptr inbounds nuw %struct.varInfo, ptr %173, i32 0, i32 1
  %175 = load i32, ptr %174, align 4, !tbaa !14
  %176 = sub nsw i32 %175, 1
  %177 = load ptr, ptr %3, align 8, !tbaa !3
  %178 = getelementptr inbounds nuw %struct.swapInfo, ptr %177, i32 0, i32 3
  store i32 %176, ptr %178, align 4, !tbaa !19
  %179 = load ptr, ptr %3, align 8, !tbaa !3
  %180 = getelementptr inbounds nuw %struct.swapInfo, ptr %179, i32 0, i32 0
  %181 = load ptr, ptr %180, align 8, !tbaa !13
  %182 = load i32, ptr %4, align 4, !tbaa !11
  %183 = sext i32 %182 to i64
  %184 = getelementptr inbounds %struct.varInfo, ptr %181, i64 %183
  %185 = getelementptr inbounds nuw %struct.varInfo, ptr %184, i32 0, i32 1
  %186 = load i32, ptr %185, align 4, !tbaa !14
  %187 = sub nsw i32 %186, 1
  %188 = load ptr, ptr %3, align 8, !tbaa !3
  %189 = getelementptr inbounds nuw %struct.swapInfo, ptr %188, i32 0, i32 4
  store i32 %187, ptr %189, align 8, !tbaa !20
  store i32 1, ptr %2, align 4
  store i32 1, ptr %7, align 4
  br label %195

190:                                              ; preds = %14
  br label %191

191:                                              ; preds = %190
  %192 = load i32, ptr %4, align 4, !tbaa !11
  %193 = add nsw i32 %192, -1
  store i32 %193, ptr %4, align 4, !tbaa !11
  br label %11, !llvm.loop !21

194:                                              ; preds = %11
  store i32 0, ptr %2, align 4
  store i32 1, ptr %7, align 4
  br label %195

195:                                              ; preds = %194, %167
  call void @llvm.lifetime.end.p0(i64 4, ptr %6) #7
  call void @llvm.lifetime.end.p0(i64 4, ptr %5) #7
  call void @llvm.lifetime.end.p0(i64 4, ptr %4) #7
  %196 = load i32, ptr %2, align 4
  ret i32 %196
}