; Function Attrs: nofree norecurse nosync nounwind memory(readwrite, inaccessiblemem: none) uwtable
define range(i32 0, 2) i32 @nextSwap(ptr noundef captures(none) %0) local_unnamed_addr #0 {
  %2 = getelementptr inbounds nuw i8, ptr %0, i64 16
  %3 = load i32, ptr %2, align 8, !tbaa !3
  %4 = icmp sgt i32 %3, 1
  br i1 %4, label %.lr.ph, label %.loopexit

.lr.ph:                                           ; preds = %1
  %5 = getelementptr inbounds nuw i8, ptr %0, i64 8
  %6 = load ptr, ptr %5, align 8, !tbaa !10
  %7 = load ptr, ptr %0, align 8, !tbaa !11
  br label %8

8:                                                ; preds = %.lr.ph, %47
  %.04957 = phi i32 [ %3, %.lr.ph ], [ %48, %47 ]
  %9 = zext nneg i32 %.04957 to i64
  %10 = getelementptr inbounds nuw %struct.varInfo, ptr %7, i64 %9
  %11 = getelementptr inbounds nuw i8, ptr %10, i64 4
  %12 = load i32, ptr %11, align 4, !tbaa !12
  %13 = load i32, ptr %10, align 4, !tbaa !14
  %14 = add nsw i32 %13, %12
  %15 = sext i32 %14 to i64
  %16 = getelementptr inbounds i32, ptr %6, i64 %15
  %17 = load i32, ptr %16, align 4, !tbaa !15
  %18 = icmp sgt i32 %.04957, %17
  br i1 %18, label %19, label %47

19:                                               ; preds = %8
  %20 = getelementptr inbounds nuw i8, ptr %10, i64 4
  %21 = getelementptr inbounds i32, ptr %6, i64 %15
  store i32 %14, ptr %20, align 4, !tbaa !12
  %22 = getelementptr inbounds nuw %struct.varInfo, ptr %7, i64 %9, i32 1
  %23 = load i32, ptr %21, align 4, !tbaa !15
  store i32 %.04957, ptr %21, align 4, !tbaa !15
  %24 = load i32, ptr %20, align 4, !tbaa !12
  %25 = load i32, ptr %10, align 4, !tbaa !14
  %26 = sub nsw i32 %24, %25
  %27 = sext i32 %26 to i64
  %28 = getelementptr inbounds i32, ptr %6, i64 %27
  store i32 %23, ptr %28, align 4, !tbaa !15
  %29 = load i32, ptr %20, align 4, !tbaa !12
  %30 = load i32, ptr %10, align 4, !tbaa !14
  %31 = sub nsw i32 %29, %30
  %32 = sext i32 %23 to i64
  %33 = getelementptr inbounds %struct.varInfo, ptr %7, i64 %32, i32 1
  store i32 %31, ptr %33, align 4, !tbaa !12
  %34 = load i32, ptr %2, align 8, !tbaa !3
  %35 = icmp sgt i32 %34, %.04957
  br i1 %35, label %.lr.ph59, label %._crit_edge

.lr.ph59:                                         ; preds = %19, %.lr.ph59
  %.04858 = phi i32 [ %40, %.lr.ph59 ], [ %34, %19 ]
  %36 = zext nneg i32 %.04858 to i64
  %37 = getelementptr inbounds nuw %struct.varInfo, ptr %7, i64 %36
  %38 = load i32, ptr %37, align 4, !tbaa !14
  %39 = sub nsw i32 0, %38
  store i32 %39, ptr %37, align 4, !tbaa !14
  %40 = add nsw i32 %.04858, -1
  %41 = icmp sgt i32 %40, %.04957
  br i1 %41, label %.lr.ph59, label %._crit_edge, !llvm.loop !16

._crit_edge:                                      ; preds = %.lr.ph59, %19
  %42 = add nsw i32 %31, -1
  %43 = getelementptr inbounds nuw i8, ptr %0, i64 20
  store i32 %42, ptr %43, align 4, !tbaa !18
  %44 = load i32, ptr %22, align 4, !tbaa !12
  %45 = add nsw i32 %44, -1
  %46 = getelementptr inbounds nuw i8, ptr %0, i64 24
  store i32 %45, ptr %46, align 8, !tbaa !19
  br label %.loopexit

47:                                               ; preds = %8
  %48 = add nsw i32 %.04957, -1
  %49 = icmp sgt i32 %.04957, 2
  br i1 %49, label %8, label %.loopexit, !llvm.loop !20

.loopexit:                                        ; preds = %47, %1, %._crit_edge
  %.0 = phi i32 [ 1, %._crit_edge ], [ 0, %1 ], [ 0, %47 ]
  ret i32 %.0
}